target datalayout = "e-m:e-p270:32:32-p271:32:32-p272:64:64-i64:64-i128:128-f80:128-n8:16:32:64-S128"
target triple = "x86_64-pc-linux-gnu"

%class.EventLog = type { ptr, ptr }

@_ZN6Events5_logsE = hidden global ptr null, align 8

; Function Attrs: mustprogress nounwind uwtable
define linkonce_odr hidden noundef ptr @_ZNK8EventLog4nextEv(ptr noundef nonnull align 8 dereferenceable(16) %0) #1 comdat align 2 {
  %2 = alloca ptr, align 8
  store ptr %0, ptr %2, align 8
  %3 = load ptr, ptr %2, align 8
  %4 = getelementptr inbounds %class.EventLog, ptr %3, i32 0, i32 1
  %5 = load ptr, ptr %4, align 8
  ret ptr %5
}

; Function Attrs: mustprogress nounwind uwtable
define hidden void @_ZN6Events9print_allEP12outputStreami(ptr noundef %0, i32 noundef %1) #1 align 2 {
  %3 = alloca ptr, align 8
  %4 = alloca i32, align 4
  %5 = alloca ptr, align 8
  store ptr %0, ptr %3, align 8
  store i32 %1, ptr %4, align 4
  %6 = load ptr, ptr @_ZN6Events5_logsE, align 8
  store ptr %6, ptr %5, align 8
  br label %7

7:                                                ; preds = %10, %2
  %8 = load ptr, ptr %5, align 8
  %9 = icmp ne ptr %8, null
  br i1 %9, label %10, label %19

10:                                               ; preds = %7
  %11 = load ptr, ptr %5, align 8
  %12 = load ptr, ptr %3, align 8
  %13 = load i32, ptr %4, align 4
  %14 = load ptr, ptr %11, align 8
  %15 = getelementptr inbounds ptr, ptr %14, i64 0
  %16 = load ptr, ptr %15, align 8
  call void %16(ptr noundef nonnull align 8 dereferenceable(16) %11, ptr noundef %12, i32 noundef %13)
  %17 = load ptr, ptr %5, align 8
  %18 = call noundef ptr @_ZNK8EventLog4nextEv(ptr noundef nonnull align 8 dereferenceable(16) %17)
  store ptr %18, ptr %5, align 8
  br label %7, !llvm.loop !6

19:                                               ; preds = %7
  ret void
}