; Function Attrs: mustprogress nounwind uwtable
define hidden void @_ZN6Events9print_allEP12outputStreami(ptr noundef %0, i32 noundef %1) local_unnamed_addr #0 align 2 {
  %.04 = load ptr, ptr @_ZN6Events5_logsE, align 8
  %.not5 = icmp eq ptr %.04, null
  br i1 %.not5, label %._crit_edge, label %.lr.ph

.lr.ph:                                           ; preds = %2, %.lr.ph
  %.06 = phi ptr [ %.0, %.lr.ph ], [ %.04, %2 ]
  %3 = load ptr, ptr %.06, align 8
  %4 = load ptr, ptr %3, align 8
  tail call void %4(ptr noundef nonnull align 8 dereferenceable(16) %.06, ptr noundef %0, i32 noundef %1) #10
  %5 = getelementptr inbounds i8, ptr %.06, i64 8
  %.0 = load ptr, ptr %5, align 8
  %.not = icmp eq ptr %.0, null
  br i1 %.not, label %._crit_edge, label %.lr.ph, !llvm.loop !6

._crit_edge:                                      ; preds = %.lr.ph, %2
  ret void
}